target datalayout = "e-m:e-p270:32:32-p271:32:32-p272:64:64-i64:64-i128:128-f80:128-n8:16:32:64-S128"
target triple = "x86_64-unknown-linux-gnu"

%"class.icu_75::ConstChar16Ptr" = type { ptr }

; Function Attrs: mustprogress nounwind uwtable
define linkonce_odr void @_ZN6icu_7514ConstChar16PtrD2Ev(ptr noundef nonnull align 8 dereferenceable(8) %this) unnamed_addr #4 comdat align 2 {
entry:
  %this.addr = alloca ptr, align 8
  store ptr %this, ptr %this.addr, align 8
  %this1 = load ptr, ptr %this.addr, align 8
  %p_ = getelementptr inbounds %"class.icu_75::ConstChar16Ptr", ptr %this1, i32 0, i32 0
  %0 = load ptr, ptr %p_, align 8
  call void asm sideeffect "", "rm,~{memory},~{dirflag},~{fpsr},~{flags}"(ptr %0) #5, !srcloc !4
  ret void
}

; Function Attrs: mustprogress uwtable
define void @_ZN6icu_7514CurrencyAmountC2ERKNS_11FormattableENS_14ConstChar16PtrER10UErrorCode(ptr noundef nonnull align 8 dereferenceable(128) %this, ptr noundef nonnull align 8 dereferenceable(112) %amount, ptr noundef %isoCode, ptr noundef nonnull align 4 dereferenceable(4) %ec) unnamed_addr #0 align 2 personality ptr @__gxx_personality_v0 {
entry:
  %this.addr = alloca ptr, align 8
  %amount.addr = alloca ptr, align 8
  %isoCode.indirect_addr = alloca ptr, align 8
  %ec.addr = alloca ptr, align 8
  %cleanup.cond = alloca i1, align 1
  %agg.tmp = alloca %"class.icu_75::ConstChar16Ptr", align 8
  %cleanup.cond2 = alloca i1, align 1
  %exn.slot = alloca ptr, align 8
  %ehselector.slot = alloca i32, align 4
  store ptr %this, ptr %this.addr, align 8
  store ptr %amount, ptr %amount.addr, align 8
  store ptr %isoCode, ptr %isoCode.indirect_addr, align 8
  store ptr %ec, ptr %ec.addr, align 8
  %this1 = load ptr, ptr %this.addr, align 8
  %0 = load ptr, ptr %amount.addr, align 8
  %call = call noundef ptr @_ZN6icu_757UMemorynwEm(i64 noundef 32) #5
  %new.isnull = icmp eq ptr %call, null
  store i1 false, ptr %cleanup.cond, align 1
  store i1 false, ptr %cleanup.cond2, align 1
  br i1 %new.isnull, label %new.cont, label %new.notnull

new.notnull:                                      ; preds = %entry
  store i1 true, ptr %cleanup.cond, align 1
  call void @llvm.memcpy.p0.p0.i64(ptr align 8 %agg.tmp, ptr align 8 %isoCode, i64 8, i1 false)
  store i1 true, ptr %cleanup.cond2, align 1
  %1 = load ptr, ptr %ec.addr, align 8
  invoke void @_ZN6icu_7512CurrencyUnitC1ENS_14ConstChar16PtrER10UErrorCode(ptr noundef nonnull align 8 dereferenceable(28) %call, ptr noundef %agg.tmp, ptr noundef nonnull align 4 dereferenceable(4) %1)
          to label %invoke.cont unwind label %lpad

invoke.cont:                                      ; preds = %new.notnull
  store i1 false, ptr %cleanup.cond, align 1
  br label %new.cont

new.cont:                                         ; preds = %invoke.cont, %entry
  %2 = phi ptr [ %call, %invoke.cont ], [ null, %entry ]
  %3 = load ptr, ptr %ec.addr, align 8
  invoke void @_ZN6icu_757MeasureC2ERKNS_11FormattableEPNS_11MeasureUnitER10UErrorCode(ptr noundef nonnull align 8 dereferenceable(128) %this1, ptr noundef nonnull align 8 dereferenceable(112) %0, ptr noundef %2, ptr noundef nonnull align 4 dereferenceable(4) %3)
          to label %invoke.cont3 unwind label %lpad

invoke.cont3:                                     ; preds = %new.cont
  %cleanup.is_active = load i1, ptr %cleanup.cond2, align 1
  br i1 %cleanup.is_active, label %cleanup.action, label %cleanup.done

cleanup.action:                                   ; preds = %invoke.cont3
  call void @_ZN6icu_7514ConstChar16PtrD2Ev(ptr noundef nonnull align 8 dereferenceable(8) %agg.tmp) #5
  br label %cleanup.done

cleanup.done:                                     ; preds = %cleanup.action, %invoke.cont3
  store ptr getelementptr inbounds ({ [6 x ptr] }, ptr @_ZTVN6icu_7514CurrencyAmountE, i32 0, i32 0, i32 2), ptr %this1, align 8
  ret void

lpad:                                             ; preds = %new.cont, %new.notnull
  %4 = landingpad { ptr, i32 }
          cleanup
  %5 = extractvalue { ptr, i32 } %4, 0
  store ptr %5, ptr %exn.slot, align 8
  %6 = extractvalue { ptr, i32 } %4, 1
  store i32 %6, ptr %ehselector.slot, align 4
  %cleanup.is_active4 = load i1, ptr %cleanup.cond2, align 1
  br i1 %cleanup.is_active4, label %cleanup.action5, label %cleanup.done6

cleanup.action5:                                  ; preds = %lpad
  call void @_ZN6icu_7514ConstChar16PtrD2Ev(ptr noundef nonnull align 8 dereferenceable(8) %agg.tmp) #5
  br label %cleanup.done6

cleanup.done6:                                    ; preds = %cleanup.action5, %lpad
  %cleanup.is_active7 = load i1, ptr %cleanup.cond, align 1
  br i1 %cleanup.is_active7, label %cleanup.action8, label %cleanup.done9

cleanup.action8:                                  ; preds = %cleanup.done6
  call void @_ZN6icu_757UMemorydlEPv(ptr noundef %call) #5
  br label %cleanup.done9

cleanup.done9:                                    ; preds = %cleanup.action8, %cleanup.done6
  br label %eh.resume

eh.resume:                                        ; preds = %cleanup.done9
  %exn = load ptr, ptr %exn.slot, align 8
  %sel = load i32, ptr %ehselector.slot, align 4
  %lpad.val = insertvalue { ptr, i32 } poison, ptr %exn, 0
  %lpad.val10 = insertvalue { ptr, i32 } %lpad.val, i32 %sel, 1
  resume { ptr, i32 } %lpad.val10
}